Certificate:
    Data:
        Version: 3 (0x2)
        Serial Number: 1 (0x1)
    Signature Algorithm: sha256WithRSAEncryption
        Issuer: C=ES, ST=Catalunya, L=Barcelona, O=Universitat Oberta de Catalunya, OU=MISTIC, CN=CA TFM 2019
        Validity
            Not Before: Apr 28 04:43:41 2019 GMT
            Not After : Oct 25 04:43:41 2019 GMT
        Subject: C=ES, ST=Catalunya, L=Barcelona, O=Universitat Oberta de Catalunya, OU=MISTIC, CN=Server
        Subject Public Key Info:
            Public Key Algorithm: rsaEncryption
                Public-Key: (4096 bit)
                Modulus:
                    00:ca:69:29:01:20:4e:75:af:f4:ca:14:e6:17:82:
                    af:db:aa:66:59:bb:bf:d8:83:fb:b3:5c:46:34:74:
                    85:9c:45:3c:3f:02:e3:16:e7:d0:98:d3:24:df:a6:
                    2e:1e:ad:12:03:b3:d0:5e:ac:0d:72:4d:ce:46:33:
                    35:9a:ce:5b:de:6c:df:72:59:7d:88:07:8a:db:c4:
                    45:3f:be:73:34:cd:de:39:53:55:b3:45:78:65:d3:
                    02:0e:fd:80:48:56:93:4e:93:7b:5a:59:17:1e:6c:
                    0e:43:ee:c5:8a:63:2f:34:b8:9a:c3:47:3a:e0:03:
                    8b:5c:0a:37:15:6c:28:06:8d:96:a1:99:cf:b1:cd:
                    12:5f:3a:d8:8d:c9:76:ab:b9:72:71:06:0b:5a:75:
                    53:2b:e4:60:b2:60:4a:2a:ff:a9:5d:c5:90:0e:64:
                    2e:70:55:12:71:6c:9d:85:65:f0:3f:d8:d5:c7:db:
                    0b:af:85:07:d2:7f:0c:c6:54:fe:61:13:9a:0e:6b:
                    6a:a9:dd:5f:47:e2:b9:a2:c2:15:62:98:6a:37:96:
                    a2:44:31:fb:97:5e:4d:fa:f9:35:5f:4d:94:9c:c5:
                    d9:02:8b:3e:47:db:c1:8d:8f:fc:63:36:b2:b5:5c:
                    8b:30:07:06:b9:48:ce:77:ce:28:86:33:69:d3:10:
                    e3:35:9a:a6:e2:c2:07:58:57:96:66:55:ee:3c:3d:
                    6d:fe:76:89:79:f9:43:42:da:41:7d:16:12:3f:1f:
                    72:cc:e6:15:54:bc:65:ea:06:bc:27:33:6a:d9:2a:
                    20:3f:0b:97:a1:a6:b9:9c:09:f7:09:10:c1:fa:32:
                    95:0e:93:c8:b6:35:31:1a:da:86:7f:91:f2:8f:8c:
                    be:45:95:3f:4b:3f:fc:c9:7a:66:b6:4f:25:30:5e:
                    e5:69:72:6c:53:9f:8e:67:0f:19:a0:06:b5:2d:0a:
                    18:5a:13:e6:3f:d5:81:89:b7:8e:ce:1e:bd:34:3e:
                    2d:da:40:6e:e8:56:53:31:ad:97:ce:0e:2e:9b:6d:
                    b4:d3:40:ed:6f:4d:4c:f5:a7:54:cb:9b:8f:22:a6:
                    f8:26:f8:58:29:ff:46:30:c3:33:7e:ed:6b:46:1d:
                    91:bb:09:f5:07:0b:96:a0:62:a2:89:50:35:c8:a1:
                    6e:16:51:f0:75:ff:6f:32:b0:1e:2a:d8:93:04:ec:
                    f6:d0:fd:99:b0:52:51:27:95:b4:92:b6:3c:2e:89:
                    0d:42:4f:61:8f:46:f0:81:f5:89:44:dc:4e:ff:28:
                    78:9c:d8:a0:49:7a:c7:e9:c8:f8:a3:96:f2:4e:4b:
                    36:c9:01:04:34:4d:5a:94:65:b2:ba:20:84:e1:a8:
                    e2:dc:3b
                Exponent: 65537 (0x10001)
        X509v3 extensions:
            X509v3 Subject Key Identifier: 
                DA:E9:6D:6E:27:27:A6:7A:1C:A4:13:3F:13:6A:F5:13:C2:3F:D6:23
            X509v3 Authority Key Identifier: 
                keyid:11:CB:76:FB:7C:98:53:DA:67:B8:1D:E6:1A:B4:D2:09:6C:FD:A2:D9
                DirName:/C=ES/ST=Catalunya/L=Barcelona/O=Universitat Oberta de Catalunya/OU=MISTIC/CN=CA TFM 2019
                serial:C5:F9:5D:B1:02:AB:20:33

            X509v3 Basic Constraints: critical
                CA:FALSE
            X509v3 Extended Key Usage: 
                TLS Web Server Authentication
            X509v3 Key Usage: 
                Digital Signature, Key Encipherment
            X509v3 Subject Alternative Name: 
                IP Address:127.0.0.1
            Authority Information Access: 
                CA Issuers - URI:http://localhost/ca.html

            X509v3 CRL Distribution Points: 

                Full Name:
                  URI:http://localhost

            Netscape Comment: 
                Servidor SSL/TLS
            Netscape Cert Type: 
                SSL Server
            Netscape CA Revocation Url: 
                http://localhost/ca-crl.pem
    Signature Algorithm: sha256WithRSAEncryption
         85:21:3a:de:0b:19:41:26:61:aa:9f:be:8f:fe:85:dc:81:53:
         e1:62:b6:54:29:8a:1b:53:6d:12:fc:17:7c:09:01:9d:c6:27:
         11:ba:5a:3e:98:16:f7:4f:69:68:68:bd:d7:6f:7d:22:39:cb:
         6d:31:85:30:2b:58:8f:09:58:e6:b5:bd:43:cf:17:7e:b9:7d:
         e8:2a:8c:dc:dc:07:ed:d5:19:55:d9:b2:6f:bb:46:0f:b8:40:
         80:f9:60:09:87:3f:0e:5b:96:10:62:1a:65:95:4a:a5:6a:5f:
         22:84:21:a3:1a:23:f2:fb:7a:f7:ca:ec:9d:ad:25:f4:dc:0c:
         cc:fc:86:95:d6:e4:05:6d:91:61:f4:d1:8d:5e:2d:7e:89:6e:
         ec:53:0f:f2:54:74:83:ef:fa:ea:86:5c:a6:00:19:a3:4f:fb:
         c7:27:95:d4:70:ca:f0:a8:96:34:a4:fe:5d:79:c7:b7:ec:3a:
         8d:6f:1f:5b:77:9a:89:4e:8b:ac:00:ed:d1:c5:87:63:f9:63:
         6b:6b:73:62:3c:62:2d:09:1b:aa:dc:26:f7:0d:9b:77:ab:15:
         dc:87:ee:d4:7a:72:6c:fc:f0:93:db:3e:d9:96:14:10:83:9b:
         e7:d5:7e:63:74:f8:12:cf:a5:fa:1f:18:21:4d:bb:5f:d2:61:
         11:ba:ef:49:be:54:b6:8e:ef:58:ae:54:ec:8b:e3:9e:50:a9:
         46:b4:46:ff:c2:0f:1a:5b:8a:0d:03:50:e0:84:36:73:62:78:
         1e:33:10:eb:04:be:fd:0e:f9:1d:66:ed:e4:92:35:1f:42:e4:
         78:80:25:34:e2:8a:61:fc:6a:ed:cf:7a:60:8d:44:a9:49:54:
         fe:9e:82:42:79:0f:bf:2f:d8:8d:1f:90:a2:c6:86:cb:0f:3d:
         27:c6:2d:30:f8:0c:72:0b:7d:8d:82:73:9a:37:27:99:ef:f5:
         81:57:44:cc:15:d4:14:09:10:71:0e:93:62:06:5b:86:d8:2d:
         4b:57:3a:9f:66:19:19:70:d2:49:44:23:9e:fa:5b:a7:98:2d:
         56:8c:d1:36:1f:ae:20:9b:cf:96:68:d0:65:b1:30:8a:b8:9b:
         3e:28:e8:5c:4b:b0:3e:29:a2:a0:e0:db:bf:6c:6e:fb:86:de:
         d5:bb:98:66:54:77:b0:2a:20:93:d8:b2:42:01:3f:f8:d3:69:
         87:be:6d:e0:b3:83:63:1c:41:cb:ca:ba:39:90:76:93:fb:ee:
         cf:44:7b:3a:f7:19:76:21:47:e9:a2:08:83:4c:6c:21:d7:bc:
         c5:88:99:ca:11:39:76:b9:17:0b:d1:68:2b:9f:0d:ac:6c:fa:
         a0:fd:08:a3:a5:d6:a7:73:04:14:44:76:86:8c:d0:a2:b9:d0:
         32:eb:5b:49:5a:8e:65:1c:c7:4d:8c:88:ad:d3:21:3e:27:ec:
         df:84:2c:d1:99:15:d4:16:42:32:1b:cf:d3:0d:a2:80:9e:52:
         36:e0:98:2f:9c:60:27:0f:10:75:3c:36:a2:8f:8e:d0:8d:12:
         74:2b:93:69:68:d0:92:fe:1d:39:0d:29:6a:04:8d:0f:9b:fe:
         1e:85:5f:91:c8:f6:54:ec:f4:3e:d4:2f:94:40:d8:64:0d:f4:
         8b:f1:c9:38:6f:ae:a4:fd:2a:7c:86:1e:b9:b8:81:d9:d0:78:
         de:b9:19:a5:0e:d3:89:77:10:9a:99:ee:ca:eb:0d:a3:3c:e8:
         d9:c0:3a:46:7b:93:32:91:64:5f:4e:aa:ec:26:ea:01:c7:50:
         bc:53:46:f1:38:60:21:70:91:11:34:af:54:3d:56:4a:7c:5d:
         58:a9:27:4b:84:63:93:eb:18:44:bb:e5:b6:f7:0b:ac:68:7c:
         3a:7f:51:4a:14:4f:67:f3:39:b4:c2:c7:be:80:f2:47:f9:72:
         d9:84:81:e2:6c:af:23:1a:69:87:27:a0:94:09:28:36:59:c5:
         d3:6c:a9:45:e9:eb:c3:66:2a:0a:0a:b3:40:6e:ff:dc:51:a8:
         91:31:2a:5d:87:20:4e:5b:42:5d:cf:9b:43:54:16:6d:8d:7b:
         40:7d:12:68:61:6d:b4:72:27:11:e4:d1:cd:23:d1:00:90:f8:
         98:cf:32:a8:49:43:69:92:06:8d:7d:6a:da:70:e8:72:dd:47:
         fe:22:c8:b6:d4:e6:30:da:47:4f:21:71:06:75:fd:5a:30:26:
         ca:b1:b2:c7:c7:2c:17:7b:f0:e4:4c:69:04:71:58:ed:3d:e1:
         c1:48:76:c5:93:d9:d2:42:c5:f9:8f:0c:b0:30:6f:2b:47:45:
         b5:8a:ce:d5:0a:7f:5d:28:9d:b7:4f:8c:7b:7e:c4:86:97:3d:
         d0:4a:68:fc:6d:c5:81:fa:b7:f5:5f:8d:58:ec:d4:49:61:34:
         9a:88:ff:4b:9b:ef:b0:95:f4:14:37:82:f5:9f:75:fd:d5:3e:
         84:fb:8e:c7:cf:98:2c:00:7e:d8:71:04:8e:fe:a7:55:17:ee:
         2c:12:4a:69:7e:d8:d8:30:17:bb:b3:74:5f:cb:93:28:86:a7:
         85:39:3c:7d:e6:8a:b3:3f:65:8d:18:e5:5a:44:14:5e:69:be:
         4f:2f:94:92:f0:d5:99:fb:e3:60:f9:52:f5:e8:14:e3:d8:88:
         65:69:d9:af:7e:34:40:d8:f6:3a:a1:70:6a:f7:10:07:6f:22:
         14:f6:f8:38:e8:35:13:fd:2e:3a:e9:80:b6:7b:79:43
-----BEGIN CERTIFICATE-----
MIIJYTCCBUmgAwIBAgIBATANBgkqhkiG9w0BAQsFADCBhjELMAkGA1UEBhMCRVMx
EjAQBgNVBAgTCUNhdGFsdW55YTESMBAGA1UEBxMJQmFyY2Vsb25hMSgwJgYDVQQK
Ex9Vbml2ZXJzaXRhdCBPYmVydGEgZGUgQ2F0YWx1bnlhMQ8wDQYDVQQLEwZNSVNU
SUMxFDASBgNVBAMTC0NBIFRGTSAyMDE5MB4XDTE5MDQyODA0NDM0MVoXDTE5MTAy
NTA0NDM0MVowgYExCzAJBgNVBAYTAkVTMRIwEAYDVQQIEwlDYXRhbHVueWExEjAQ
BgNVBAcTCUJhcmNlbG9uYTEoMCYGA1UEChMfVW5pdmVyc2l0YXQgT2JlcnRhIGRl
IENhdGFsdW55YTEPMA0GA1UECxMGTUlTVElDMQ8wDQYDVQQDEwZTZXJ2ZXIwggIi
MA0GCSqGSIb3DQEBAQUAA4ICDwAwggIKAoICAQDKaSkBIE51r/TKFOYXgq/bqmZZ
u7/Yg/uzXEY0dIWcRTw/AuMW59CY0yTfpi4erRIDs9BerA1yTc5GMzWazlvebN9y
WX2IB4rbxEU/vnM0zd45U1WzRXhl0wIO/YBIVpNOk3taWRcebA5D7sWKYy80uJrD
RzrgA4tcCjcVbCgGjZahmc+xzRJfOtiNyXaruXJxBgtadVMr5GCyYEoq/6ldxZAO
ZC5wVRJxbJ2FZfA/2NXH2wuvhQfSfwzGVP5hE5oOa2qp3V9H4rmiwhVimGo3lqJE
MfuXXk36+TVfTZScxdkCiz5H28GNj/xjNrK1XIswBwa5SM53ziiGM2nTEOM1mqbi
wgdYV5ZmVe48PW3+dol5+UNC2kF9FhI/H3LM5hVUvGXqBrwnM2rZKiA/C5ehprmc
CfcJEMH6MpUOk8i2NTEa2oZ/kfKPjL5FlT9LP/zJema2TyUwXuVpcmxTn45nDxmg
BrUtChhaE+Y/1YGJt47OHr00Pi3aQG7oVlMxrZfODi6bbbTTQO1vTUz1p1TLm48i
pvgm+Fgp/0YwwzN+7WtGHZG7CfUHC5agYqKJUDXIoW4WUfB1/28ysB4q2JME7PbQ
/ZmwUlEnlbSStjwuiQ1CT2GPRvCB9YlE3E7/KHic2KBJesfpyPijlvJOSzbJAQQ0
TVqUZbK6IIThqOLcOwIDAQABo4IB2zCCAdcwHQYDVR0OBBYEFNrpbW4nJ6Z6HKQT
PxNq9RPCP9YjMIG7BgNVHSMEgbMwgbCAFBHLdvt8mFPaZ7gd5hq00gls/aLZoYGM
pIGJMIGGMQswCQYDVQQGEwJFUzESMBAGA1UECBMJQ2F0YWx1bnlhMRIwEAYDVQQH
EwlCYXJjZWxvbmExKDAmBgNVBAoTH1VuaXZlcnNpdGF0IE9iZXJ0YSBkZSBDYXRh
bHVueWExDzANBgNVBAsTBk1JU1RJQzEUMBIGA1UEAxMLQ0EgVEZNIDIwMTmCCQDF
+V2xAqsgMzAMBgNVHRMBAf8EAjAAMBMGA1UdJQQMMAoGCCsGAQUFBwMBMAsGA1Ud
DwQEAwIFoDAPBgNVHREECDAGhwR/AAABMDQGCCsGAQUFBwEBBCgwJjAkBggrBgEF
BQcwAoYYaHR0cDovL2xvY2FsaG9zdC9jYS5odG1sMCEGA1UdHwQaMBgwFqAUoBKG
EGh0dHA6Ly9sb2NhbGhvc3QwHwYJYIZIAYb4QgENBBIWEFNlcnZpZG9yIFNTTC9U
TFMwEQYJYIZIAYb4QgEBBAQDAgZAMCoGCWCGSAGG+EIBBAQdFhtodHRwOi8vbG9j
YWxob3N0L2NhLWNybC5wZW0wDQYJKoZIhvcNAQELBQADggQBAIUhOt4LGUEmYaqf
vo/+hdyBU+FitlQpihtTbRL8F3wJAZ3GJxG6Wj6YFvdPaWhovddvfSI5y20xhTAr
WI8JWOa1vUPPF365fegqjNzcB+3VGVXZsm+7Rg+4QID5YAmHPw5blhBiGmWVSqVq
XyKEIaMaI/L7evfK7J2tJfTcDMz8hpXW5AVtkWH00Y1eLX6JbuxTD/JUdIPv+uqG
XKYAGaNP+8cnldRwyvColjSk/l15x7fsOo1vH1t3molOi6wA7dHFh2P5Y2trc2I8
Yi0JG6rcJvcNm3erFdyH7tR6cmz88JPbPtmWFBCDm+fVfmN0+BLPpfofGCFNu1/S
YRG670m+VLaO71iuVOyL455QqUa0Rv/CDxpbig0DUOCENnNieB4zEOsEvv0O+R1m
7eSSNR9C5HiAJTTiimH8au3PemCNRKlJVP6egkJ5D78v2I0fkKLGhssPPSfGLTD4
DHILfY2Cc5o3J5nv9YFXRMwV1BQJEHEOk2IGW4bYLUtXOp9mGRlw0klEI576W6eY
LVaM0TYfriCbz5Zo0GWxMIq4mz4o6FxLsD4poqDg279sbvuG3tW7mGZUd7AqIJPY
skIBP/jTaYe+beCzg2McQcvKujmQdpP77s9Eezr3GXYhR+miCINMbCHXvMWImcoR
OXa5FwvRaCufDaxs+qD9CKOl1qdzBBREdoaM0KK50DLrW0lajmUcx02MiK3TIT4n
7N+ELNGZFdQWQjIbz9MNooCeUjbgmC+cYCcPEHU8NqKPjtCNEnQrk2lo0JL+HTkN
KWoEjQ+b/h6FX5HI9lTs9D7UL5RA2GQN9IvxyThvrqT9KnyGHrm4gdnQeN65GaUO
04l3EJqZ7srrDaM86NnAOkZ7kzKRZF9Oquwm6gHHULxTRvE4YCFwkRE0r1Q9Vkp8
XVipJ0uEY5PrGES75bb3C6xofDp/UUoUT2fzObTCx76A8kf5ctmEgeJsryMaaYcn
oJQJKDZZxdNsqUXp68NmKgoKs0Bu/9xRqJExKl2HIE5bQl3Pm0NUFm2Ne0B9Emhh
bbRyJxHk0c0j0QCQ+JjPMqhJQ2mSBo19atpw6HLdR/4iyLbU5jDaR08hcQZ1/Vow
JsqxssfHLBd78ORMaQRxWO094cFIdsWT2dJCxfmPDLAwbytHRbWKztUKf10onbdP
jHt+xIaXPdBKaPxtxYH6t/VfjVjs1ElhNJqI/0ub77CV9BQ3gvWfdf3VPoT7jsfP
mCwAfthxBI7+p1UX7iwSSml+2NgwF7uzdF/LkyiGp4U5PH3mirM/ZY0Y5VpEFF5p
vk8vlJLw1Zn742D5UvXoFOPYiGVp2a9+NEDY9jqhcGr3EAdvIhT2+DjoNRP9Ljrp
gLZ7eUM=
-----END CERTIFICATE-----
